target datalayout = "e-m:e-p270:32:32-p271:32:32-p272:64:64-i64:64-i128:128-f80:128-n8:16:32:64-S128"
target triple = "x86_64-pc-linux-gnu"

%struct._mka_ckn_info_key = type { ptr, i32 }

; Function Attrs: nounwind null_pointer_is_valid sspstrong uwtable
define internal i32 @ckn_key_equal_func(ptr noundef %0, ptr noundef %1) #7 {
  %3 = alloca i32, align 4
  %4 = alloca ptr, align 8
  %5 = alloca ptr, align 8
  %6 = alloca ptr, align 8
  %7 = alloca ptr, align 8
  %8 = alloca i32, align 4
  store ptr %0, ptr %4, align 8
  store ptr %1, ptr %5, align 8
  call void @llvm.lifetime.start.p0(i64 8, ptr %6) #8
  %9 = load ptr, ptr %4, align 8
  store ptr %9, ptr %6, align 8
  call void @llvm.lifetime.start.p0(i64 8, ptr %7) #8
  %10 = load ptr, ptr %5, align 8
  store ptr %10, ptr %7, align 8
  %11 = load ptr, ptr %6, align 8
  %12 = getelementptr inbounds nuw %struct._mka_ckn_info_key, ptr %11, i32 0, i32 1
  %13 = load i32, ptr %12, align 8
  %14 = load ptr, ptr %7, align 8
  %15 = getelementptr inbounds nuw %struct._mka_ckn_info_key, ptr %14, i32 0, i32 1
  %16 = load i32, ptr %15, align 8
  %17 = icmp ne i32 %13, %16
  br i1 %17, label %18, label %19

18:                                               ; preds = %2
  store i32 0, ptr %3, align 4
  store i32 1, ptr %8, align 4
  br label %34

19:                                               ; preds = %2
  %20 = load ptr, ptr %6, align 8
  %21 = getelementptr inbounds nuw %struct._mka_ckn_info_key, ptr %20, i32 0, i32 0
  %22 = load ptr, ptr %21, align 8
  %23 = load ptr, ptr %7, align 8
  %24 = getelementptr inbounds nuw %struct._mka_ckn_info_key, ptr %23, i32 0, i32 0
  %25 = load ptr, ptr %24, align 8
  %26 = load ptr, ptr %6, align 8
  %27 = getelementptr inbounds nuw %struct._mka_ckn_info_key, ptr %26, i32 0, i32 1
  %28 = load i32, ptr %27, align 8
  %29 = zext i32 %28 to i64
  %30 = call i32 @memcmp(ptr noundef %22, ptr noundef %25, i64 noundef %29) #10
  %31 = icmp ne i32 %30, 0
  br i1 %31, label %32, label %33

32:                                               ; preds = %19
  store i32 0, ptr %3, align 4
  store i32 1, ptr %8, align 4
  br label %34

33:                                               ; preds = %19
  store i32 1, ptr %3, align 4
  store i32 1, ptr %8, align 4
  br label %34

34:                                               ; preds = %33, %32, %18
  call void @llvm.lifetime.end.p0(i64 8, ptr %7) #8
  call void @llvm.lifetime.end.p0(i64 8, ptr %6) #8
  %35 = load i32, ptr %3, align 4
  ret i32 %35
}