; Function Attrs: mustprogress nofree nounwind null_pointer_is_valid sspstrong willreturn memory(read, inaccessiblemem: none) uwtable
define internal range(i32 0, 2) i32 @ckn_key_equal_func(ptr noundef readonly captures(none) %0, ptr noundef readonly captures(none) %1) #6 {
  %3 = getelementptr inbounds nuw i8, ptr %0, i64 8
  %4 = load i32, ptr %3, align 8
  %5 = getelementptr inbounds nuw i8, ptr %1, i64 8
  %6 = load i32, ptr %5, align 8
  %.not = icmp eq i32 %4, %6
  br i1 %.not, label %7, label %11

7:                                                ; preds = %2
  %8 = load ptr, ptr %0, align 8
  %9 = load ptr, ptr %1, align 8
  %10 = zext i32 %4 to i64
  %bcmp = tail call i32 @bcmp(ptr %8, ptr %9, i64 %10)
  %.not8 = icmp eq i32 %bcmp, 0
  %. = zext i1 %.not8 to i32
  br label %11

11:                                               ; preds = %7, %2
  %.0 = phi i32 [ 0, %2 ], [ %., %7 ]
  ret i32 %.0
}